; Function Attrs: nounwind uwtable
define noalias ptr @av_packet_alloc() local_unnamed_addr #3 {
  %1 = tail call noalias ptr @av_malloc(i64 noundef 104) #16
  %.not = icmp eq ptr %1, null
  br i1 %.not, label %7, label %2

2:                                                ; preds = %0
  tail call void @llvm.memset.p0.i64(ptr noundef nonnull align 8 dereferenceable(104) %1, i8 0, i64 96, i1 false)
  %3 = getelementptr inbounds nuw i8, ptr %1, i64 8
  store i64 -9223372036854775808, ptr %3, align 8, !tbaa !4
  %4 = getelementptr inbounds nuw i8, ptr %1, i64 16
  store i64 -9223372036854775808, ptr %4, align 8, !tbaa !15
  %5 = getelementptr inbounds nuw i8, ptr %1, i64 72
  store i64 -1, ptr %5, align 8, !tbaa !16
  %6 = getelementptr inbounds nuw i8, ptr %1, i64 96
  store i64 4294967296, ptr %6, align 8
  br label %7

7:                                                ; preds = %0, %2
  ret ptr %1
}